Certificate:
    Data:
        Version: 3 (0x2)
        Serial Number:
            55:38:3c:37:59:59:09:4f:f2:07:f7:ec:55:7a:dc:f2:64:e4:a1:d3
        Signature Algorithm: ecdsa-with-SHA256
        Issuer: C = FR, L = Limoges, O = CRYPTIS, OU = SecuTIC, CN = ACSECUTIC
        Validity
            Not Before: Apr 22 16:36:03 2024 GMT
            Not After : May 22 16:36:03 2024 GMT
        Subject: C = FR, L = Limoges, O = CRYPTIS, OU = SecuTIC, CN = ACSECUTIC
        Subject Public Key Info:
            Public Key Algorithm: id-ecPublicKey
                Public-Key: (256 bit)
                pub:
                    04:fe:c8:cc:2d:f8:78:2f:ca:01:b3:e0:a1:2c:bc:
                    a3:90:3f:e1:51:5b:39:44:06:57:53:12:1d:73:6a:
                    af:32:33:e0:59:df:a3:6a:f7:1f:ae:81:6f:a1:a3:
                    a7:6c:14:0f:1e:cf:3c:ca:e1:48:a4:27:b3:a8:54:
                    44:66:55:f1:e8
                ASN1 OID: prime256v1
                NIST CURVE: P-256
        X509v3 extensions:
            X509v3 Basic Constraints: 
                CA:TRUE
            X509v3 Subject Key Identifier: 
                35:11:F2:6F:96:00:23:61:83:3F:46:D2:AC:01:78:9C:24:2C:6C:A3
    Signature Algorithm: ecdsa-with-SHA256
    Signature Value:
        30:44:02:20:0e:55:54:f4:c3:b3:b1:41:cb:21:19:b4:c7:ef:
        1b:95:9f:2c:2c:a1:60:0b:51:df:8e:ca:33:93:bd:33:8f:24:
        02:20:7d:54:e0:12:9a:d7:7d:df:23:73:a2:66:c6:c3:32:77:
        d6:0a:a8:34:e9:0d:54:a1:28:e0:cb:a8:c4:6d:dd:81
-----BEGIN CERTIFICATE-----
MIIB3jCCAYWgAwIBAgIUVTg8N1lZCU/yB/fsVXrc8mTkodMwCgYIKoZIzj0EAwIw
VzELMAkGA1UEBhMCRlIxEDAOBgNVBAcMB0xpbW9nZXMxEDAOBgNVBAoMB0NSWVBU
SVMxEDAOBgNVBAsMB1NlY3VUSUMxEjAQBgNVBAMMCUFDU0VDVVRJQzAeFw0yNDA0
MjIxNjM2MDNaFw0yNDA1MjIxNjM2MDNaMFcxCzAJBgNVBAYTAkZSMRAwDgYDVQQH
DAdMaW1vZ2VzMRAwDgYDVQQKDAdDUllQVElTMRAwDgYDVQQLDAdTZWN1VElDMRIw
EAYDVQQDDAlBQ1NFQ1VUSUMwWTATBgcqhkjOPQIBBggqhkjOPQMBBwNCAAT+yMwt
+HgvygGz4KEsvKOQP+FRWzlEBldTEh1zaq8yM+BZ36Nq9x+ugW+ho6dsFA8ezzzK
4UikJ7OoVERmVfHooy8wLTAMBgNVHRMEBTADAQH/MB0GA1UdDgQWBBQ1EfJvlgAj
YYM/RtKsAXicJCxsozAKBggqhkjOPQQDAgNHADBEAiAOVVT0w7OxQcshGbTH7xuV
nywsoWALUd+OyjOTvTOPJAIgfVTgEprXfd8jc6JmxsMyd9YKqDTpDVShKODLqMRt
3YE=
-----END CERTIFICATE-----
