-----BEGIN EC PARAMETERS-----
BggqhkjOPQMBBw==
-----END EC PARAMETERS-----
-----BEGIN EC PRIVATE KEY-----
MHcCAQEEIOlm2HEQGcmGk/D6lvwMIzMB8K/tNY+vujg8lJgzgKKfoAoGCCqGSM49
AwEHoUQDQgAEn9E6Tsyt10ctSAI7S8mFIszIVTnATsJLwmmc/okQ/fGTeMiAXtrT
M+IQtI3GqsF3tBChWqbsLBcMdx9rUTW5lg==
-----END EC PRIVATE KEY-----
Certificate:
    Data:
        Version: 3 (0x2)
        Serial Number:
            79:08:e7:ec:06:67:20:09:c1:14:04:49:a1:07:9d:e0:84:59:58:d2
        Signature Algorithm: ecdsa-with-SHA256
        Issuer: C = FR, L = Limoges, O = CRYPTIS, OU = SecuTIC, CN = ACSECUTIC
        Validity
            Not Before: Apr 30 22:27:45 2024 GMT
            Not After : Apr 28 22:27:45 2034 GMT
        Subject: C = FR, L = Limoges, O = CRYPTIS, OU = SecuTIC, CN = localhost
        Subject Public Key Info:
            Public Key Algorithm: id-ecPublicKey
                Public-Key: (256 bit)
                pub:
                    04:9f:d1:3a:4e:cc:ad:d7:47:2d:48:02:3b:4b:c9:
                    85:22:cc:c8:55:39:c0:4e:c2:4b:c2:69:9c:fe:89:
                    10:fd:f1:93:78:c8:80:5e:da:d3:33:e2:10:b4:8d:
                    c6:aa:c1:77:b4:10:a1:5a:a6:ec:2c:17:0c:77:1f:
                    6b:51:35:b9:96
                ASN1 OID: prime256v1
                NIST CURVE: P-256
        X509v3 extensions:
            X509v3 Basic Constraints: critical
                CA:FALSE
            X509v3 Subject Key Identifier: 
                24:1B:DE:A6:9A:CE:0F:2D:3D:57:21:1D:F4:FA:DA:F2:2E:25:41:A0
            X509v3 Authority Key Identifier: 
                2F:A0:9A:8C:CC:83:92:4E:42:4F:61:72:8E:3C:AD:E9:2D:BE:D2:7F
    Signature Algorithm: ecdsa-with-SHA256
    Signature Value:
        30:45:02:20:43:3b:ea:4c:76:45:48:3e:8f:35:47:1c:de:45:
        5d:61:dd:e7:f8:2e:89:df:50:6f:95:3e:0d:16:55:cb:eb:40:
        02:21:00:e0:04:ba:12:3d:d5:6f:f1:8b:ce:e8:c7:87:00:37:
        85:95:1c:4a:07:ee:75:26:f7:75:c8:ff:ef:42:39:c4:b7
-----BEGIN CERTIFICATE-----
MIICADCCAaagAwIBAgIUeQjn7AZnIAnBFARJoQed4IRZWNIwCgYIKoZIzj0EAwIw
VzELMAkGA1UEBhMCRlIxEDAOBgNVBAcMB0xpbW9nZXMxEDAOBgNVBAoMB0NSWVBU
SVMxEDAOBgNVBAsMB1NlY3VUSUMxEjAQBgNVBAMMCUFDU0VDVVRJQzAeFw0yNDA0
MzAyMjI3NDVaFw0zNDA0MjgyMjI3NDVaMFcxCzAJBgNVBAYTAkZSMRAwDgYDVQQH
DAdMaW1vZ2VzMRAwDgYDVQQKDAdDUllQVElTMRAwDgYDVQQLDAdTZWN1VElDMRIw
EAYDVQQDDAlsb2NhbGhvc3QwWTATBgcqhkjOPQIBBggqhkjOPQMBBwNCAASf0TpO
zK3XRy1IAjtLyYUizMhVOcBOwkvCaZz+iRD98ZN4yIBe2tMz4hC0jcaqwXe0EKFa
puwsFwx3H2tRNbmWo1AwTjAMBgNVHRMBAf8EAjAAMB0GA1UdDgQWBBQkG96mms4P
LT1XIR30+tryLiVBoDAfBgNVHSMEGDAWgBQvoJqMzIOSTkJPYXKOPK3pLb7SfzAK
BggqhkjOPQQDAgNIADBFAiBDO+pMdkVIPo81RxzeRV1h3ef4LonfUG+VPg0WVcvr
QAIhAOAEuhI91W/xi87ox4cAN4WVHEoH7nUm93XI/+9COcS3
-----END CERTIFICATE-----
