Certificate:
    Data:
        Version: 3 (0x2)
        Serial Number:
            50:01:61:e4:4b:f7:83:36:88:9d:48:58:86:42:a8:26:12:d2:37:9d
        Signature Algorithm: ecdsa-with-SHA256
        Issuer: C = FR, L = Limoges, O = CRYPTIS, OU = SecuTIC, CN = ACSECUTIC
        Validity
            Not Before: Apr 30 22:27:45 2024 GMT
            Not After : May 30 22:27:45 2024 GMT
        Subject: C = FR, L = Limoges, O = CRYPTIS, OU = SecuTIC, CN = ACSECUTIC
        Subject Public Key Info:
            Public Key Algorithm: id-ecPublicKey
                Public-Key: (256 bit)
                pub:
                    04:09:61:5a:36:41:8d:7f:e5:e6:fe:04:16:1f:70:
                    a9:3d:11:27:14:69:3a:f6:eb:24:6a:e9:d6:e5:37:
                    fd:48:3a:b9:ca:70:7e:0c:f3:89:ac:6e:9f:b6:39:
                    37:89:2f:f4:77:81:8f:ac:98:cd:58:16:23:b8:31:
                    02:eb:eb:7b:39
                ASN1 OID: prime256v1
                NIST CURVE: P-256
        X509v3 extensions:
            X509v3 Basic Constraints: 
                CA:TRUE
            X509v3 Subject Key Identifier: 
                2F:A0:9A:8C:CC:83:92:4E:42:4F:61:72:8E:3C:AD:E9:2D:BE:D2:7F
    Signature Algorithm: ecdsa-with-SHA256
    Signature Value:
        30:45:02:21:00:ff:dc:59:14:ad:f1:3d:96:c9:5a:c5:17:6d:
        e5:45:57:08:e2:8a:a3:39:e2:71:62:aa:6d:0d:1a:71:07:3f:
        1f:02:20:09:a8:6a:06:35:fc:26:a1:a5:9a:a3:12:c5:e1:a2:
        4d:df:e7:aa:7b:15:61:bd:89:21:c1:a5:4c:81:24:fd:c3
-----BEGIN CERTIFICATE-----
MIIB3zCCAYWgAwIBAgIUUAFh5Ev3gzaInUhYhkKoJhLSN50wCgYIKoZIzj0EAwIw
VzELMAkGA1UEBhMCRlIxEDAOBgNVBAcMB0xpbW9nZXMxEDAOBgNVBAoMB0NSWVBU
SVMxEDAOBgNVBAsMB1NlY3VUSUMxEjAQBgNVBAMMCUFDU0VDVVRJQzAeFw0yNDA0
MzAyMjI3NDVaFw0yNDA1MzAyMjI3NDVaMFcxCzAJBgNVBAYTAkZSMRAwDgYDVQQH
DAdMaW1vZ2VzMRAwDgYDVQQKDAdDUllQVElTMRAwDgYDVQQLDAdTZWN1VElDMRIw
EAYDVQQDDAlBQ1NFQ1VUSUMwWTATBgcqhkjOPQIBBggqhkjOPQMBBwNCAAQJYVo2
QY1/5eb+BBYfcKk9EScUaTr26yRq6dblN/1IOrnKcH4M84msbp+2OTeJL/R3gY+s
mM1YFiO4MQLr63s5oy8wLTAMBgNVHRMEBTADAQH/MB0GA1UdDgQWBBQvoJqMzIOS
TkJPYXKOPK3pLb7SfzAKBggqhkjOPQQDAgNIADBFAiEA/9xZFK3xPZbJWsUXbeVF
VwjiiqM54nFiqm0NGnEHPx8CIAmoagY1/CahpZqjEsXhok3f56p7FWG9iSHBpUyB
JP3D
-----END CERTIFICATE-----
