Certificate Request:
    Data:
        Version: 1 (0x0)
        Subject: C = FR, L = Limoges, O = CRYPTIS, OU = SecuTIC, CN = localhost
        Subject Public Key Info:
            Public Key Algorithm: id-ecPublicKey
                Public-Key: (256 bit)
                pub:
                    04:9f:d1:3a:4e:cc:ad:d7:47:2d:48:02:3b:4b:c9:
                    85:22:cc:c8:55:39:c0:4e:c2:4b:c2:69:9c:fe:89:
                    10:fd:f1:93:78:c8:80:5e:da:d3:33:e2:10:b4:8d:
                    c6:aa:c1:77:b4:10:a1:5a:a6:ec:2c:17:0c:77:1f:
                    6b:51:35:b9:96
                ASN1 OID: prime256v1
                NIST CURVE: P-256
        Attributes:
            Requested Extensions:
                X509v3 Basic Constraints: 
                    CA:FALSE
    Signature Algorithm: ecdsa-with-SHA256
    Signature Value:
        30:44:02:20:0d:31:ee:7a:2f:a7:a6:7b:1e:e4:27:1b:51:e8:
        23:e4:a6:04:59:31:61:c1:8e:39:80:c3:11:44:5a:2d:e5:60:
        02:20:56:1b:ca:f7:d7:54:b5:05:ab:ff:d0:a8:bc:bb:0b:e7:
        5e:25:26:1d:47:8f:8b:16:b2:e8:3a:8d:98:ee:bd:6e
-----BEGIN CERTIFICATE REQUEST-----
MIIBLTCB1QIBADBXMQswCQYDVQQGEwJGUjEQMA4GA1UEBwwHTGltb2dlczEQMA4G
A1UECgwHQ1JZUFRJUzEQMA4GA1UECwwHU2VjdVRJQzESMBAGA1UEAwwJbG9jYWxo
b3N0MFkwEwYHKoZIzj0CAQYIKoZIzj0DAQcDQgAEn9E6Tsyt10ctSAI7S8mFIszI
VTnATsJLwmmc/okQ/fGTeMiAXtrTM+IQtI3GqsF3tBChWqbsLBcMdx9rUTW5lqAc
MBoGCSqGSIb3DQEJDjENMAswCQYDVR0TBAIwADAKBggqhkjOPQQDAgNHADBEAiAN
Me56L6emex7kJxtR6CPkpgRZMWHBjjmAwxFEWi3lYAIgVhvK99dUtQWr/9CovLsL
514lJh1Hj4sWsug6jZjuvW4=
-----END CERTIFICATE REQUEST-----
